; Function Attrs: nofree norecurse nosync nounwind memory(read, inaccessiblemem: none) uwtable
define hidden i64 @lexbor_str_whitespace_from_begin(ptr nocapture noundef readonly %0) local_unnamed_addr #7 {
  %2 = load ptr, ptr %0, align 8
  %3 = getelementptr inbounds i8, ptr %0, i64 8
  %4 = load i64, ptr %3, align 8
  %.not = icmp eq i64 %4, 0
  br i1 %.not, label %._crit_edge, label %.lr.ph

.lr.ph:                                           ; preds = %1, %7
  %.019 = phi i64 [ %8, %7 ], [ 0, %1 ]
  %5 = getelementptr inbounds i8, ptr %2, i64 %.019
  %6 = load i8, ptr %5, align 1
  switch i8 %6, label %._crit_edge [
    i8 32, label %7
    i8 9, label %7
    i8 10, label %7
    i8 12, label %7
    i8 13, label %7
  ]

7:                                                ; preds = %.lr.ph, %.lr.ph, %.lr.ph, %.lr.ph, %.lr.ph
  %8 = add nuw i64 %.019, 1
  %exitcond.not = icmp eq i64 %8, %4
  br i1 %exitcond.not, label %._crit_edge, label %.lr.ph

._crit_edge:                                      ; preds = %7, %.lr.ph, %1
  %.0.lcssa = phi i64 [ 0, %1 ], [ %.019, %.lr.ph ], [ %4, %7 ]
  ret i64 %.0.lcssa
}